target datalayout = "e-m:e-p270:32:32-p271:32:32-p272:64:64-i64:64-i128:128-f80:128-n8:16:32:64-S128"
target triple = "x86_64-pc-linux-gnu"

%struct.AVFilterContext = type { ptr, ptr, ptr, ptr, ptr, i32, ptr, ptr, i32, ptr, ptr, i32, i32, ptr, ptr, ptr, ptr, i32, ptr, i32, i32 }
%struct.HeadphoneContext = type { ptr, ptr, i32, i32, i32, i32, i32, i32, i32, i32, float, float, float, [2 x ptr], [2 x i32], i32, i32, i32, i32, [2 x ptr], [2 x ptr], [2 x ptr], [2 x ptr], [2 x ptr], [2 x ptr], [2 x ptr], [2 x ptr], [2 x ptr], [2 x ptr], ptr, [64 x %struct.hrir_inputs], %struct.AVChannelLayout, [64 x i32], [64 x i8] }
%struct.hrir_inputs = type { i32, i32 }
%struct.AVChannelLayout = type { i32, i32, %union.anon.1, ptr }
%union.anon.1 = type { i64 }

; Function Attrs: cold nounwind optsize uwtable
define internal void @uninit(ptr noundef %0) #0 {
  %2 = alloca ptr, align 8
  %3 = alloca ptr, align 8
  store ptr %0, ptr %2, align 8, !tbaa !4
  call void @llvm.lifetime.start.p0(i64 8, ptr %3) #9
  %4 = load ptr, ptr %2, align 8, !tbaa !4
  %5 = getelementptr inbounds nuw %struct.AVFilterContext, ptr %4, i32 0, i32 9
  %6 = load ptr, ptr %5, align 8, !tbaa !9
  store ptr %6, ptr %3, align 8, !tbaa !22
  %7 = load ptr, ptr %3, align 8, !tbaa !22
  %8 = getelementptr inbounds nuw %struct.HeadphoneContext, ptr %7, i32 0, i32 25
  %9 = getelementptr inbounds [2 x ptr], ptr %8, i64 0, i64 0
  call void @av_tx_uninit(ptr noundef %9)
  %10 = load ptr, ptr %3, align 8, !tbaa !22
  %11 = getelementptr inbounds nuw %struct.HeadphoneContext, ptr %10, i32 0, i32 25
  %12 = getelementptr inbounds [2 x ptr], ptr %11, i64 0, i64 1
  call void @av_tx_uninit(ptr noundef %12)
  %13 = load ptr, ptr %3, align 8, !tbaa !22
  %14 = getelementptr inbounds nuw %struct.HeadphoneContext, ptr %13, i32 0, i32 24
  %15 = getelementptr inbounds [2 x ptr], ptr %14, i64 0, i64 0
  call void @av_tx_uninit(ptr noundef %15)
  %16 = load ptr, ptr %3, align 8, !tbaa !22
  %17 = getelementptr inbounds nuw %struct.HeadphoneContext, ptr %16, i32 0, i32 24
  %18 = getelementptr inbounds [2 x ptr], ptr %17, i64 0, i64 1
  call void @av_tx_uninit(ptr noundef %18)
  %19 = load ptr, ptr %3, align 8, !tbaa !22
  %20 = getelementptr inbounds nuw %struct.HeadphoneContext, ptr %19, i32 0, i32 19
  %21 = getelementptr inbounds [2 x ptr], ptr %20, i64 0, i64 0
  call void @av_freep(ptr noundef %21)
  %22 = load ptr, ptr %3, align 8, !tbaa !22
  %23 = getelementptr inbounds nuw %struct.HeadphoneContext, ptr %22, i32 0, i32 19
  %24 = getelementptr inbounds [2 x ptr], ptr %23, i64 0, i64 1
  call void @av_freep(ptr noundef %24)
  %25 = load ptr, ptr %3, align 8, !tbaa !22
  %26 = getelementptr inbounds nuw %struct.HeadphoneContext, ptr %25, i32 0, i32 13
  %27 = getelementptr inbounds [2 x ptr], ptr %26, i64 0, i64 0
  call void @av_freep(ptr noundef %27)
  %28 = load ptr, ptr %3, align 8, !tbaa !22
  %29 = getelementptr inbounds nuw %struct.HeadphoneContext, ptr %28, i32 0, i32 13
  %30 = getelementptr inbounds [2 x ptr], ptr %29, i64 0, i64 1
  call void @av_freep(ptr noundef %30)
  %31 = load ptr, ptr %3, align 8, !tbaa !22
  %32 = getelementptr inbounds nuw %struct.HeadphoneContext, ptr %31, i32 0, i32 20
  %33 = getelementptr inbounds [2 x ptr], ptr %32, i64 0, i64 0
  call void @av_freep(ptr noundef %33)
  %34 = load ptr, ptr %3, align 8, !tbaa !22
  %35 = getelementptr inbounds nuw %struct.HeadphoneContext, ptr %34, i32 0, i32 20
  %36 = getelementptr inbounds [2 x ptr], ptr %35, i64 0, i64 1
  call void @av_freep(ptr noundef %36)
  %37 = load ptr, ptr %3, align 8, !tbaa !22
  %38 = getelementptr inbounds nuw %struct.HeadphoneContext, ptr %37, i32 0, i32 21
  %39 = getelementptr inbounds [2 x ptr], ptr %38, i64 0, i64 0
  call void @av_freep(ptr noundef %39)
  %40 = load ptr, ptr %3, align 8, !tbaa !22
  %41 = getelementptr inbounds nuw %struct.HeadphoneContext, ptr %40, i32 0, i32 21
  %42 = getelementptr inbounds [2 x ptr], ptr %41, i64 0, i64 1
  call void @av_freep(ptr noundef %42)
  %43 = load ptr, ptr %3, align 8, !tbaa !22
  %44 = getelementptr inbounds nuw %struct.HeadphoneContext, ptr %43, i32 0, i32 22
  %45 = getelementptr inbounds [2 x ptr], ptr %44, i64 0, i64 0
  call void @av_freep(ptr noundef %45)
  %46 = load ptr, ptr %3, align 8, !tbaa !22
  %47 = getelementptr inbounds nuw %struct.HeadphoneContext, ptr %46, i32 0, i32 22
  %48 = getelementptr inbounds [2 x ptr], ptr %47, i64 0, i64 1
  call void @av_freep(ptr noundef %48)
  %49 = load ptr, ptr %3, align 8, !tbaa !22
  %50 = getelementptr inbounds nuw %struct.HeadphoneContext, ptr %49, i32 0, i32 23
  %51 = getelementptr inbounds [2 x ptr], ptr %50, i64 0, i64 0
  call void @av_freep(ptr noundef %51)
  %52 = load ptr, ptr %3, align 8, !tbaa !22
  %53 = getelementptr inbounds nuw %struct.HeadphoneContext, ptr %52, i32 0, i32 23
  %54 = getelementptr inbounds [2 x ptr], ptr %53, i64 0, i64 1
  call void @av_freep(ptr noundef %54)
  %55 = load ptr, ptr %3, align 8, !tbaa !22
  %56 = getelementptr inbounds nuw %struct.HeadphoneContext, ptr %55, i32 0, i32 28
  %57 = getelementptr inbounds [2 x ptr], ptr %56, i64 0, i64 0
  call void @av_freep(ptr noundef %57)
  %58 = load ptr, ptr %3, align 8, !tbaa !22
  %59 = getelementptr inbounds nuw %struct.HeadphoneContext, ptr %58, i32 0, i32 28
  %60 = getelementptr inbounds [2 x ptr], ptr %59, i64 0, i64 1
  call void @av_freep(ptr noundef %60)
  call void @llvm.lifetime.end.p0(i64 8, ptr %3) #9
  ret void
}