; Function Attrs: cold nounwind optsize uwtable
define internal void @uninit(ptr noundef readonly captures(none) %0) #0 {
  %2 = getelementptr inbounds nuw i8, ptr %0, i64 72
  %3 = load ptr, ptr %2, align 8, !tbaa !4
  %4 = getelementptr inbounds nuw i8, ptr %3, i64 200
  tail call void @av_tx_uninit(ptr noundef nonnull %4) #8
  %5 = getelementptr inbounds nuw i8, ptr %3, i64 208
  tail call void @av_tx_uninit(ptr noundef nonnull %5) #8
  %6 = getelementptr inbounds nuw i8, ptr %3, i64 184
  tail call void @av_tx_uninit(ptr noundef nonnull %6) #8
  %7 = getelementptr inbounds nuw i8, ptr %3, i64 192
  tail call void @av_tx_uninit(ptr noundef nonnull %7) #8
  %8 = getelementptr inbounds nuw i8, ptr %3, i64 104
  tail call void @av_freep(ptr noundef nonnull %8) #8
  %9 = getelementptr inbounds nuw i8, ptr %3, i64 112
  tail call void @av_freep(ptr noundef nonnull %9) #8
  %10 = getelementptr inbounds nuw i8, ptr %3, i64 64
  tail call void @av_freep(ptr noundef nonnull %10) #8
  %11 = getelementptr inbounds nuw i8, ptr %3, i64 72
  tail call void @av_freep(ptr noundef nonnull %11) #8
  %12 = getelementptr inbounds nuw i8, ptr %3, i64 120
  tail call void @av_freep(ptr noundef nonnull %12) #8
  %13 = getelementptr inbounds nuw i8, ptr %3, i64 128
  tail call void @av_freep(ptr noundef nonnull %13) #8
  %14 = getelementptr inbounds nuw i8, ptr %3, i64 136
  tail call void @av_freep(ptr noundef nonnull %14) #8
  %15 = getelementptr inbounds nuw i8, ptr %3, i64 144
  tail call void @av_freep(ptr noundef nonnull %15) #8
  %16 = getelementptr inbounds nuw i8, ptr %3, i64 152
  tail call void @av_freep(ptr noundef nonnull %16) #8
  %17 = getelementptr inbounds nuw i8, ptr %3, i64 160
  tail call void @av_freep(ptr noundef nonnull %17) #8
  %18 = getelementptr inbounds nuw i8, ptr %3, i64 168
  tail call void @av_freep(ptr noundef nonnull %18) #8
  %19 = getelementptr inbounds nuw i8, ptr %3, i64 176
  tail call void @av_freep(ptr noundef nonnull %19) #8
  %20 = getelementptr inbounds nuw i8, ptr %3, i64 248
  tail call void @av_freep(ptr noundef nonnull %20) #8
  %21 = getelementptr inbounds nuw i8, ptr %3, i64 256
  tail call void @av_freep(ptr noundef nonnull %21) #8
  ret void
}